target datalayout = "e-m:e-p270:32:32-p271:32:32-p272:64:64-i64:64-i128:128-f80:128-n8:16:32:64-S128"
target triple = "x86_64-unknown-linux-gnu"

%"class.rocksdb::Slice" = type { ptr, i64 }
%"class.rocksdb::BlockHandle" = type { i64, i64 }
%"struct.rocksdb::IndexValue" = type { %"class.rocksdb::BlockHandle", %"class.rocksdb::Slice" }

; Function Attrs: mustprogress nounwind uwtable
define linkonce_odr noundef i64 @_ZNK7rocksdb11BlockHandle6offsetEv(ptr noundef nonnull align 8 dereferenceable(16) %this) #1 comdat align 2 {
entry:
  %this.addr = alloca ptr, align 8
  store ptr %this, ptr %this.addr, align 8
  %this1 = load ptr, ptr %this.addr, align 8
  %offset_ = getelementptr inbounds %"class.rocksdb::BlockHandle", ptr %this1, i32 0, i32 0
  %0 = load i64, ptr %offset_, align 8
  ret i64 %0
}

; Function Attrs: mustprogress uwtable
define noundef i64 @_ZNK7rocksdb15BlockBasedTable23ApproximateDataOffsetOfERKNS_20InternalIteratorBaseINS_10IndexValueEEEm(ptr noundef nonnull align 8 dereferenceable(24) %this, ptr noundef nonnull align 8 dereferenceable(40) %index_iter, i64 noundef %data_size) #0 align 2 {
entry:
  %retval = alloca i64, align 8
  %this.addr = alloca ptr, align 8
  %index_iter.addr = alloca ptr, align 8
  %data_size.addr = alloca i64, align 8
  %handle = alloca %"class.rocksdb::BlockHandle", align 8
  %ref.tmp = alloca %"struct.rocksdb::IndexValue", align 8
  store ptr %this, ptr %this.addr, align 8
  store ptr %index_iter, ptr %index_iter.addr, align 8
  store i64 %data_size, ptr %data_size.addr, align 8
  %0 = load ptr, ptr %index_iter.addr, align 8
  %vtable = load ptr, ptr %0, align 8
  %vfn = getelementptr inbounds ptr, ptr %vtable, i64 3
  %1 = load ptr, ptr %vfn, align 8
  %call = call noundef zeroext i1 %1(ptr noundef nonnull align 8 dereferenceable(40) %0)
  br i1 %call, label %if.then, label %if.else

if.then:                                          ; preds = %entry
  %2 = load ptr, ptr %index_iter.addr, align 8
  %vtable2 = load ptr, ptr %2, align 8
  %vfn3 = getelementptr inbounds ptr, ptr %vtable2, i64 13
  %3 = load ptr, ptr %vfn3, align 8
  call void %3(ptr sret(%"struct.rocksdb::IndexValue") align 8 %ref.tmp, ptr noundef nonnull align 8 dereferenceable(40) %2)
  %handle4 = getelementptr inbounds %"struct.rocksdb::IndexValue", ptr %ref.tmp, i32 0, i32 0
  call void @llvm.memcpy.p0.p0.i64(ptr align 8 %handle, ptr align 8 %handle4, i64 16, i1 false)
  %call5 = call noundef i64 @_ZNK7rocksdb11BlockHandle6offsetEv(ptr noundef nonnull align 8 dereferenceable(16) %handle)
  store i64 %call5, ptr %retval, align 8
  br label %return

if.else:                                          ; preds = %entry
  %4 = load i64, ptr %data_size.addr, align 8
  store i64 %4, ptr %retval, align 8
  br label %return

return:                                           ; preds = %if.else, %if.then
  %5 = load i64, ptr %retval, align 8
  ret i64 %5
}