; Function Attrs: mustprogress uwtable
define noundef i64 @_ZNK7rocksdb15BlockBasedTable23ApproximateDataOffsetOfERKNS_20InternalIteratorBaseINS_10IndexValueEEEm(ptr nocapture noundef nonnull readnone align 8 dereferenceable(24) %this, ptr noundef nonnull align 8 dereferenceable(40) %index_iter, i64 noundef %data_size) local_unnamed_addr #3 align 2 {
entry:
  %ref.tmp = alloca %"struct.rocksdb::IndexValue", align 8
  %vtable = load ptr, ptr %index_iter, align 8
  %vfn = getelementptr inbounds i8, ptr %vtable, i64 24
  %0 = load ptr, ptr %vfn, align 8
  %call = tail call noundef zeroext i1 %0(ptr noundef nonnull align 8 dereferenceable(40) %index_iter)
  br i1 %call, label %if.then, label %return

if.then:                                          ; preds = %entry
  %vtable2 = load ptr, ptr %index_iter, align 8
  %vfn3 = getelementptr inbounds i8, ptr %vtable2, i64 104
  %1 = load ptr, ptr %vfn3, align 8
  call void %1(ptr nonnull sret(%"struct.rocksdb::IndexValue") align 8 %ref.tmp, ptr noundef nonnull align 8 dereferenceable(40) %index_iter)
  %handle.sroa.0.0.copyload = load i64, ptr %ref.tmp, align 8
  br label %return

return:                                           ; preds = %entry, %if.then
  %retval.0 = phi i64 [ %handle.sroa.0.0.copyload, %if.then ], [ %data_size, %entry ]
  ret i64 %retval.0
}